target datalayout = "e-m:e-p270:32:32-p271:32:32-p272:64:64-i64:64-i128:128-f80:128-n8:16:32:64-S128"
target triple = "x86_64-unknown-linux-gnu"

%"class.v8::IndirectHandleBase" = type { ptr }
%"class.node::MemoryRetainer" = type { ptr }
%"class.std::__cxx11::basic_string" = type { %"struct.std::__cxx11::basic_string<char>::_Alloc_hider", i64, %union.anon.110 }
%"struct.std::__cxx11::basic_string<char>::_Alloc_hider" = type { ptr }
%union.anon.110 = type { i64, [8 x i8] }
%"class.node::worker::TransferData" = type { %"class.node::MemoryRetainer" }
%"class.v8::Global.468" = type { %"class.v8::PersistentBase.469" }
%"class.v8::PersistentBase.469" = type { %"class.v8::IndirectHandleBase" }
%"class.node::worker::JSTransferable::Data" = type { %"class.node::worker::TransferData", %"class.std::__cxx11::basic_string", %"class.v8::Global.468" }

; Function Attrs: mustprogress nounwind uwtable
define linkonce_odr dso_local void @_ZN4node14MemoryRetainerC2Ev(ptr noundef nonnull align 8 dereferenceable(8) %this) unnamed_addr #4 comdat align 2 {
entry:
  %this.addr = alloca ptr, align 8
  store ptr %this, ptr %this.addr, align 8
  %this1 = load ptr, ptr %this.addr, align 8
  store ptr getelementptr inbounds ({ [10 x ptr] }, ptr @_ZTVN4node14MemoryRetainerE, i32 0, i32 0, i32 2), ptr %this1, align 8
  ret void
}

; Function Attrs: mustprogress nounwind uwtable
define linkonce_odr dso_local void @_ZN4node6worker12TransferDataC2Ev(ptr noundef nonnull align 8 dereferenceable(8) %this) unnamed_addr #4 comdat align 2 {
entry:
  %this.addr = alloca ptr, align 8
  store ptr %this, ptr %this.addr, align 8
  %this1 = load ptr, ptr %this.addr, align 8
  call void @_ZN4node14MemoryRetainerC2Ev(ptr noundef nonnull align 8 dereferenceable(8) %this1) #3
  store ptr getelementptr inbounds ({ [12 x ptr] }, ptr @_ZTVN4node6worker12TransferDataE, i32 0, i32 0, i32 2), ptr %this1, align 8
  ret void
}

; Function Attrs: mustprogress nounwind uwtable
define dso_local void @_ZN4node6worker14JSTransferable4DataC2EONSt7__cxx1112basic_stringIcSt11char_traitsIcESaIcEEEON2v86GlobalINSA_5ValueEEE(ptr noundef nonnull align 8 dereferenceable(48) %this, ptr noundef nonnull align 8 dereferenceable(32) %deserialize_info, ptr noundef nonnull align 8 dereferenceable(8) %data) unnamed_addr #4 align 2 {
entry:
  %this.addr.i.i10 = alloca ptr, align 8
  %location.addr.i.i = alloca ptr, align 8
  %this.addr.i11 = alloca ptr, align 8
  %location.addr.i = alloca ptr, align 8
  %this.addr.i8 = alloca ptr, align 8
  %this.addr.i6 = alloca ptr, align 8
  %this.addr.i4 = alloca ptr, align 8
  %this.addr.i2 = alloca ptr, align 8
  %this.addr.i.i = alloca ptr, align 8
  %this.addr.i = alloca ptr, align 8
  %other.addr.i = alloca ptr, align 8
  %this.addr = alloca ptr, align 8
  %deserialize_info.addr = alloca ptr, align 8
  %data.addr = alloca ptr, align 8
  store ptr %this, ptr %this.addr, align 8
  store ptr %deserialize_info, ptr %deserialize_info.addr, align 8
  store ptr %data, ptr %data.addr, align 8
  %this1 = load ptr, ptr %this.addr, align 8
  call void @_ZN4node6worker12TransferDataC2Ev(ptr noundef nonnull align 8 dereferenceable(8) %this1) #3
  store ptr getelementptr inbounds ({ [12 x ptr] }, ptr @_ZTVN4node6worker14JSTransferable4DataE, i32 0, i32 0, i32 2), ptr %this1, align 8
  %deserialize_info_ = getelementptr inbounds %"class.node::worker::JSTransferable::Data", ptr %this1, i32 0, i32 1
  %0 = load ptr, ptr %deserialize_info.addr, align 8
  call void @_ZNSt7__cxx1112basic_stringIcSt11char_traitsIcESaIcEEC1EOS4_(ptr noundef nonnull align 8 dereferenceable(32) %deserialize_info_, ptr noundef nonnull align 8 dereferenceable(32) %0) #3
  %data_ = getelementptr inbounds %"class.node::worker::JSTransferable::Data", ptr %this1, i32 0, i32 2
  %1 = load ptr, ptr %data.addr, align 8
  store ptr %data_, ptr %this.addr.i, align 8
  store ptr %1, ptr %other.addr.i, align 8
  %this1.i = load ptr, ptr %this.addr.i, align 8
  %2 = load ptr, ptr %other.addr.i, align 8
  store ptr %2, ptr %this.addr.i6, align 8
  %this1.i7 = load ptr, ptr %this.addr.i6, align 8
  %3 = load ptr, ptr %this1.i7, align 8
  store ptr %this1.i, ptr %this.addr.i11, align 8
  store ptr %3, ptr %location.addr.i, align 8
  %this1.i12 = load ptr, ptr %this.addr.i11, align 8
  %4 = load ptr, ptr %location.addr.i, align 8
  store ptr %this1.i12, ptr %this.addr.i.i10, align 8
  store ptr %4, ptr %location.addr.i.i, align 8
  %this1.i.i13 = load ptr, ptr %this.addr.i.i10, align 8
  %5 = load ptr, ptr %location.addr.i.i, align 8
  store ptr %5, ptr %this1.i.i13, align 8
  %6 = load ptr, ptr %other.addr.i, align 8
  store ptr %6, ptr %this.addr.i.i, align 8
  %this1.i.i = load ptr, ptr %this.addr.i.i, align 8
  %7 = load ptr, ptr %this1.i.i, align 8
  %cmp.i.i = icmp eq ptr %7, null
  br i1 %cmp.i.i, label %_ZN2v86GlobalINS_5ValueEEC2EOS2_.exit, label %if.then.i

if.then.i:                                        ; preds = %entry
  %8 = load ptr, ptr %other.addr.i, align 8
  store ptr %8, ptr %this.addr.i4, align 8
  %this1.i5 = load ptr, ptr %this.addr.i4, align 8
  store ptr %this1.i, ptr %this.addr.i2, align 8
  %this1.i3 = load ptr, ptr %this.addr.i2, align 8
  call void @_ZN2v812api_internal19MoveGlobalReferenceEPPmS2_(ptr noundef %this1.i5, ptr noundef %this1.i3) #3
  %9 = load ptr, ptr %other.addr.i, align 8
  store ptr %9, ptr %this.addr.i8, align 8
  %this1.i9 = load ptr, ptr %this.addr.i8, align 8
  store ptr null, ptr %this1.i9, align 8
  br label %_ZN2v86GlobalINS_5ValueEEC2EOS2_.exit

_ZN2v86GlobalINS_5ValueEEC2EOS2_.exit:            ; preds = %if.then.i, %entry
  ret void
}