; Function Attrs: mustprogress nounwind uwtable
define dso_local void @_ZN4node6worker14JSTransferable4DataC2EONSt7__cxx1112basic_stringIcSt11char_traitsIcESaIcEEEON2v86GlobalINSA_5ValueEEE(ptr noundef nonnull align 8 dereferenceable(48) %this, ptr noundef nonnull align 8 dereferenceable(32) %deserialize_info, ptr noundef nonnull align 8 dereferenceable(8) %data) unnamed_addr #6 align 2 {
entry:
  store ptr getelementptr inbounds ({ [12 x ptr] }, ptr @_ZTVN4node6worker14JSTransferable4DataE, i64 0, i32 0, i64 2), ptr %this, align 8
  %deserialize_info_ = getelementptr inbounds i8, ptr %this, i64 8
  tail call void @_ZNSt7__cxx1112basic_stringIcSt11char_traitsIcESaIcEEC1EOS4_(ptr noundef nonnull align 8 dereferenceable(32) %deserialize_info_, ptr noundef nonnull align 8 dereferenceable(32) %deserialize_info) #26
  %data_ = getelementptr inbounds i8, ptr %this, i64 40
  %0 = load ptr, ptr %data, align 8
  store ptr %0, ptr %data_, align 8
  %cmp.i.i = icmp eq ptr %0, null
  br i1 %cmp.i.i, label %_ZN2v86GlobalINS_5ValueEEC2EOS2_.exit, label %if.then.i

if.then.i:                                        ; preds = %entry
  tail call void @_ZN2v812api_internal19MoveGlobalReferenceEPPmS2_(ptr noundef nonnull %data, ptr noundef nonnull %data_) #26
  store ptr null, ptr %data, align 8
  br label %_ZN2v86GlobalINS_5ValueEEC2EOS2_.exit

_ZN2v86GlobalINS_5ValueEEC2EOS2_.exit:            ; preds = %if.then.i, %entry
  ret void
}